ccopy_reg
_reconstructor
p1
(ccontroller
Tournament
p2
c__builtin__
object
p3
NtRp4
(dp5
S'tables'
p6
I4
sS'current_round'
p7
I1
sS'players'
p8
(dp9
S'1'
g1
(ccontroller
Player
p10
g3
NtRp11
(dp12
S'factions'
p13
(lp14
S'Cryx'
p15
asS'opponents_played'
p16
(lp17
g1
(g10
g3
NtRp18
(dp19
g13
(lp20
VSkorne
p21
asg16
(lp22
g11
ag1
(g10
g3
NtRp23
(dp24
g13
(lp25
S'Cryx'
p26
asg16
(lp27
g1
(g10
g3
NtRp28
(dp29
g13
(lp30
S'Cygnar'
p31
asg16
(lp32
g23
ag1
(g10
g3
NtRp33
(dp34
g13
(lp35
S'Circle'
p36
asg16
(lp37
g1
(g10
g3
NtRp38
(dp39
g13
(lp40
S'Khador'
p41
asg16
(lp42
g33
ag11
asS'uid'
p43
S'6'
sS'tables_played'
p44
(lp45
I2
aI1
asS'_tp'
p46
(lp47
I0
aI1
asS'_cp'
p48
(lp49
I0
aI0
asS'factions_played'
p50
(lp51
VCircle
p52
aVCryx
p53
asS'_kp'
p54
(lp55
I0
aI0
asS'team'
p56
S'Praha'
p57
sS'country'
p58
S''
sS'is_playing'
p59
I01
sS'name'
p60
S'Deaddy'
p61
sbag28
asg43
S'4'
sg44
(lp62
I2
aI3
asg46
(lp63
I1
aI0
asg48
(lp64
I0
aI0
asg50
(lp65
VKhador
p66
aVCygnar
p67
asg54
(lp68
I0
aI0
asg56
S'Brno'
p69
sg58
S''
sg59
I01
sg60
S'Misa'
p70
sbasg43
S'2'
sg44
(lp71
I1
aI3
asg46
(lp72
I1
aI1
asg48
(lp73
I0
aI0
asg50
(lp74
VCryx
p75
aVCircle
p76
asg54
(lp77
I0
aI0
asg56
S'Brno'
p78
sg58
S'CZ'
p79
sg59
I01
sg60
S'Joza'
p80
sbag18
asg43
S'7'
sg44
(lp81
I1
aI2
asg46
(lp82
I0
aI0
asg48
(lp83
I0
aI0
asg50
(lp84
VCygnar
p85
aVSkorne
p86
asg54
(lp87
I0
aI0
asg56
S'Praha'
p88
sg58
S''
sg59
I01
sg60
S'Fousek'
p89
sbasg43
S'9'
sg44
(lp90
I4
aI2
asg46
(lp91
I0
aI1
asg48
(lp92
I0
aI0
asg50
(lp93
VCryx
p94
aVCryx
p95
asg54
(lp96
I0
aI0
asg56
VPraha
p97
sg58
V
sg59
I01
sg60
Vbye bye butterfly
p98
sbag38
asg43
S'1'
sg44
(lp99
I4
aI1
asg46
(lp100
I1
aI0
asg48
(lp101
I0
aI0
asg50
(lp102
VSkorne
p103
aVKhador
p104
asg54
(lp105
I0
aI0
asg56
S'Brno'
p106
sg58
S'CZ'
p107
sg59
I01
sg60
S'Vlada'
p108
sbsS'3'
g1
(g10
g3
NtRp109
(dp110
g13
(lp111
S'Khador'
p112
asg16
(lp113
Nag1
(g10
g3
NtRp114
(dp115
g13
(lp116
S'Cygnar'
p117
asg16
(lp118
g1
(g10
g3
NtRp119
(dp120
g13
(lp121
S'Circle'
p122
asg16
(lp123
g114
aNasg43
S'8'
sg44
(lp124
I3
aNasg46
(lp125
I0
aI1
asg48
(lp126
I0
aI3
asg50
(lp127
VCygnar
p128
asg54
(lp129
I0
aI25
asg56
S'Praha'
p130
sg58
S''
sg59
I01
sg60
S'Karolko'
p131
sbag109
asg43
S'5'
sg44
(lp132
I3
aI4
asg46
(lp133
I1
asg48
(lp134
I0
asg50
(lp135
VCircle
p136
asg54
(lp137
I0
asg56
S'Praha'
p138
sg58
S'SK'
p139
sg59
I01
sg60
S'David'
p140
sbasg43
S'3'
sg44
(lp141
NaI4
asg46
(lp142
I1
asg48
(lp143
I3
asg50
(lp144
sg54
(lp145
I25
asg56
S'Brno'
p146
sg58
S''
sg59
I01
sg60
S'Marek'
p147
sbsS'2'
g28
sS'5'
g114
sS'4'
g33
sS'7'
g23
sS'6'
g38
sS'9'
g18
sS'8'
g119
ssS'points'
p148
I50
sS'byes'
p149
(lp150
g109
ag119
asS'pairings'
p151
(lp152
(dp153
I1
(g23
g28
tp154
sI2
(g38
g33
tp155
sI3
(g119
g114
tp156
sI4
(g18
g11
tp157
sa(dp158
I1
(g11
g38
tp159
sI2
(g23
g18
tp160
sI3
(g33
g28
tp161
sI4
(g109
g114
tp162
sasb.