ccopy_reg
_reconstructor
p1
(ccontroller
Tournament
p2
c__builtin__
object
p3
NtRp4
(dp5
S'tables'
p6
I4
sS'current_round'
p7
I1
sS'players'
p8
(dp9
S'1'
g1
(ccontroller
Player
p10
g3
NtRp11
(dp12
S'opponents_played'
p13
(lp14
g1
(g10
g3
NtRp15
(dp16
g13
(lp17
g11
ag1
(g10
g3
NtRp18
(dp19
g13
(lp20
g1
(g10
g3
NtRp21
(dp22
g13
(lp23
g18
ag1
(g10
g3
NtRp24
(dp25
g13
(lp26
g1
(g10
g3
NtRp27
(dp28
g13
(lp29
g24
ag11
asS'uid'
p30
S'6'
sS'tables_played'
p31
(lp32
I2
aI1
asS'_tp'
p33
(lp34
I0
aI1
asS'_cp'
p35
(lp36
I0
aI0
asS'team'
p37
S'Praha'
p38
sS'factions_played'
p39
(lp40
VCircle
p41
aVCryx
p42
asS'_kp'
p43
(lp44
I0
aI0
asS'country'
p45
S''
sS'factions'
p46
(lp47
S'Khador'
p48
asS'is_playing'
p49
I01
sS'name'
p50
S'Deaddy'
p51
sbag21
asg30
S'4'
sg31
(lp52
I2
aI3
asg33
(lp53
I1
aI0
asg35
(lp54
I0
aI0
asg37
S'Brno'
p55
sg39
(lp56
VKhador
p57
aVCygnar
p58
asg43
(lp59
I0
aI0
asg45
S''
sg46
(lp60
S'Circle'
p61
asg49
I01
sg50
S'Misa'
p62
sbasg30
S'2'
sg31
(lp63
I1
aI3
asg33
(lp64
I1
aI1
asg35
(lp65
I0
aI0
asg37
S'Brno'
p66
sg39
(lp67
VCryx
p68
aVCircle
p69
asg43
(lp70
I0
aI0
asg45
S'CZ'
p71
sg46
(lp72
S'Cygnar'
p73
asg49
I01
sg50
S'Joza'
p74
sbag15
asg30
S'7'
sg31
(lp75
I1
aI2
asg33
(lp76
I0
aI0
asg35
(lp77
I0
aI0
asg37
S'Praha'
p78
sg39
(lp79
VCygnar
p80
aVSkorne
p81
asg43
(lp82
I0
aI0
asg45
S''
sg46
(lp83
S'Cryx'
p84
asg49
I01
sg50
S'Fousek'
p85
sbasg30
S'9'
sg31
(lp86
I4
aI2
asg33
(lp87
I0
aI1
asg35
(lp88
I0
aI0
asg37
VPraha
p89
sg39
(lp90
VCryx
p91
aVCryx
p92
asg43
(lp93
I0
aI0
asg45
V
sg46
(lp94
VSkorne
p95
asg49
I01
sg50
Vbye bye butterfly
p96
sbag27
asg30
S'1'
sg31
(lp97
I4
aI1
asg33
(lp98
I1
aI0
asg35
(lp99
I0
aI0
asg37
S'Brno'
p100
sg39
(lp101
VSkorne
p102
aVKhador
p103
asg43
(lp104
I0
aI0
asg45
S'CZ'
p105
sg46
(lp106
S'Cryx'
p107
asg49
I01
sg50
S'Vlada'
p108
sbsS'3'
g1
(g10
g3
NtRp109
(dp110
g13
(lp111
Nag1
(g10
g3
NtRp112
(dp113
g13
(lp114
g1
(g10
g3
NtRp115
(dp116
g13
(lp117
g112
aNasg30
S'8'
sg31
(lp118
I3
aNasg33
(lp119
I0
aI1
asg35
(lp120
I0
aI3
asg37
S'Praha'
p121
sg39
(lp122
VCygnar
p123
asg43
(lp124
I0
aI25
asg45
S''
sg46
(lp125
S'Circle'
p126
asg49
I01
sg50
S'Karolko'
p127
sbag109
asg30
S'5'
sg31
(lp128
I3
aI4
asg33
(lp129
I1
aI1
asg35
(lp130
I0
aI0
asg37
S'Praha'
p131
sg39
(lp132
VCircle
p133
aVKhador
p134
asg43
(lp135
I0
aI0
asg45
S'SK'
p136
sg46
(lp137
S'Cygnar'
p138
asg49
I01
sg50
S'David'
p139
sbasg30
S'3'
sg31
(lp140
NaI4
asg33
(lp141
I1
aI0
asg35
(lp142
I3
aI0
asg37
S'Brno'
p143
sg39
(lp144
VCygnar
p145
asg43
(lp146
I25
aI0
asg45
S''
sg46
(lp147
S'Khador'
p148
asg49
I01
sg50
S'Marek'
p149
sbsS'2'
g21
sS'5'
g112
sS'4'
g24
sS'7'
g18
sS'6'
g27
sS'9'
g15
sS'8'
g115
ssS'points'
p150
I50
sS'byes'
p151
(lp152
g109
ag115
asS'pairings'
p153
(lp154
(dp155
I1
(g18
g21
tp156
sI2
(g27
g24
tp157
sI3
(g115
g112
tp158
sI4
(g15
g11
tp159
sa(dp160
I1
(g11
g27
tp161
sI2
(g18
g15
tp162
sI3
(g24
g21
tp163
sI4
(g109
g112
tp164
sasb.